target datalayout = "e-m:e-p270:32:32-p271:32:32-p272:64:64-i64:64-i128:128-f80:128-n8:16:32:64-S128"
target triple = "x86_64-unknown-linux-gnu"

%"class.Imf_3_2::Pxr24Compressor" = type <{ %"class.Imf_3_2::Compressor", i32, i32, ptr, ptr, ptr, i32, i32, i32, [4 x i8] }>
%"class.Imf_3_2::Compressor" = type { ptr, ptr }
%"class.Imath_3_2::Box" = type { %"class.Imath_3_2::Vec2", %"class.Imath_3_2::Vec2" }
%"class.Imath_3_2::Vec2" = type { i32, i32 }

; Function Attrs: mustprogress nounwind uwtable
define linkonce_odr hidden noundef nonnull align 4 dereferenceable(8) ptr @_ZN9Imath_3_24Vec2IiEaSERKS1_(ptr noundef nonnull align 4 dereferenceable(8) %this, ptr noundef nonnull align 4 dereferenceable(8) %v) #6 comdat align 2 {
entry:
  %this.addr = alloca ptr, align 8
  %v.addr = alloca ptr, align 8
  store ptr %this, ptr %this.addr, align 8
  store ptr %v, ptr %v.addr, align 8
  %this1 = load ptr, ptr %this.addr, align 8
  %0 = load ptr, ptr %v.addr, align 8
  %x = getelementptr inbounds %"class.Imath_3_2::Vec2", ptr %0, i32 0, i32 0
  %1 = load i32, ptr %x, align 4
  %x2 = getelementptr inbounds %"class.Imath_3_2::Vec2", ptr %this1, i32 0, i32 0
  store i32 %1, ptr %x2, align 4
  %2 = load ptr, ptr %v.addr, align 8
  %y = getelementptr inbounds %"class.Imath_3_2::Vec2", ptr %2, i32 0, i32 1
  %3 = load i32, ptr %y, align 4
  %y3 = getelementptr inbounds %"class.Imath_3_2::Vec2", ptr %this1, i32 0, i32 1
  store i32 %3, ptr %y3, align 4
  ret ptr %this1
}

; Function Attrs: mustprogress nounwind uwtable
define linkonce_odr hidden void @_ZN9Imath_3_24Vec2IiEC2Ev(ptr noundef nonnull align 4 dereferenceable(8) %this) unnamed_addr #6 comdat align 2 {
entry:
  %this.addr = alloca ptr, align 8
  store ptr %this, ptr %this.addr, align 8
  ret void
}

; Function Attrs: mustprogress nounwind uwtable
define linkonce_odr hidden void @_ZN9Imath_3_23BoxINS_4Vec2IiEEEC2ERKS2_S5_(ptr noundef nonnull align 4 dereferenceable(16) %this, ptr noundef nonnull align 4 dereferenceable(8) %minT, ptr noundef nonnull align 4 dereferenceable(8) %maxT) unnamed_addr #6 comdat align 2 {
entry:
  %this.addr = alloca ptr, align 8
  %minT.addr = alloca ptr, align 8
  %maxT.addr = alloca ptr, align 8
  store ptr %this, ptr %this.addr, align 8
  store ptr %minT, ptr %minT.addr, align 8
  store ptr %maxT, ptr %maxT.addr, align 8
  %this1 = load ptr, ptr %this.addr, align 8
  %min = getelementptr inbounds %"class.Imath_3_2::Box", ptr %this1, i32 0, i32 0
  call void @_ZN9Imath_3_24Vec2IiEC2Ev(ptr noundef nonnull align 4 dereferenceable(8) %min) #3
  %max = getelementptr inbounds %"class.Imath_3_2::Box", ptr %this1, i32 0, i32 1
  call void @_ZN9Imath_3_24Vec2IiEC2Ev(ptr noundef nonnull align 4 dereferenceable(8) %max) #3
  %0 = load ptr, ptr %minT.addr, align 8
  %min2 = getelementptr inbounds %"class.Imath_3_2::Box", ptr %this1, i32 0, i32 0
  %call = call noundef nonnull align 4 dereferenceable(8) ptr @_ZN9Imath_3_24Vec2IiEaSERKS1_(ptr noundef nonnull align 4 dereferenceable(8) %min2, ptr noundef nonnull align 4 dereferenceable(8) %0) #3
  %1 = load ptr, ptr %maxT.addr, align 8
  %max3 = getelementptr inbounds %"class.Imath_3_2::Box", ptr %this1, i32 0, i32 1
  %call4 = call noundef nonnull align 4 dereferenceable(8) ptr @_ZN9Imath_3_24Vec2IiEaSERKS1_(ptr noundef nonnull align 4 dereferenceable(8) %max3, ptr noundef nonnull align 4 dereferenceable(8) %1) #3
  ret void
}

; Function Attrs: mustprogress nounwind uwtable
define linkonce_odr hidden void @_ZN9Imath_3_24Vec2IiEC2Eii(ptr noundef nonnull align 4 dereferenceable(8) %this, i32 noundef %a, i32 noundef %b) unnamed_addr #6 comdat align 2 {
entry:
  %this.addr = alloca ptr, align 8
  %a.addr = alloca i32, align 4
  %b.addr = alloca i32, align 4
  store ptr %this, ptr %this.addr, align 8
  store i32 %a, ptr %a.addr, align 4
  store i32 %b, ptr %b.addr, align 4
  %this1 = load ptr, ptr %this.addr, align 8
  %x = getelementptr inbounds %"class.Imath_3_2::Vec2", ptr %this1, i32 0, i32 0
  %0 = load i32, ptr %a.addr, align 4
  store i32 %0, ptr %x, align 4
  %y = getelementptr inbounds %"class.Imath_3_2::Vec2", ptr %this1, i32 0, i32 1
  %1 = load i32, ptr %b.addr, align 4
  store i32 %1, ptr %y, align 4
  ret void
}

; Function Attrs: mustprogress uwtable
define hidden noundef i32 @_ZN7Imf_3_215Pxr24Compressor10uncompressEPKciiRS2_(ptr noundef nonnull align 8 dereferenceable(60) %this, ptr noundef %inPtr, i32 noundef %inSize, i32 noundef %minY, ptr noundef nonnull align 8 dereferenceable(8) %outPtr) unnamed_addr #4 align 2 {
entry:
  %this.addr = alloca ptr, align 8
  %inPtr.addr = alloca ptr, align 8
  %inSize.addr = alloca i32, align 4
  %minY.addr = alloca i32, align 4
  %outPtr.addr = alloca ptr, align 8
  %agg.tmp = alloca %"class.Imath_3_2::Box", align 4
  %ref.tmp = alloca %"class.Imath_3_2::Vec2", align 4
  %ref.tmp2 = alloca %"class.Imath_3_2::Vec2", align 4
  store ptr %this, ptr %this.addr, align 8
  store ptr %inPtr, ptr %inPtr.addr, align 8
  store i32 %inSize, ptr %inSize.addr, align 4
  store i32 %minY, ptr %minY.addr, align 4
  store ptr %outPtr, ptr %outPtr.addr, align 8
  %this1 = load ptr, ptr %this.addr, align 8
  %0 = load ptr, ptr %inPtr.addr, align 8
  %1 = load i32, ptr %inSize.addr, align 4
  %_minX = getelementptr inbounds %"class.Imf_3_2::Pxr24Compressor", ptr %this1, i32 0, i32 6
  %2 = load i32, ptr %_minX, align 8
  %3 = load i32, ptr %minY.addr, align 4
  call void @_ZN9Imath_3_24Vec2IiEC2Eii(ptr noundef nonnull align 4 dereferenceable(8) %ref.tmp, i32 noundef %2, i32 noundef %3) #3
  %_maxX = getelementptr inbounds %"class.Imf_3_2::Pxr24Compressor", ptr %this1, i32 0, i32 7
  %4 = load i32, ptr %_maxX, align 4
  %5 = load i32, ptr %minY.addr, align 4
  %_numScanLines = getelementptr inbounds %"class.Imf_3_2::Pxr24Compressor", ptr %this1, i32 0, i32 2
  %6 = load i32, ptr %_numScanLines, align 4
  %add = add nsw i32 %5, %6
  %sub = sub nsw i32 %add, 1
  call void @_ZN9Imath_3_24Vec2IiEC2Eii(ptr noundef nonnull align 4 dereferenceable(8) %ref.tmp2, i32 noundef %4, i32 noundef %sub) #3
  call void @_ZN9Imath_3_23BoxINS_4Vec2IiEEEC2ERKS2_S5_(ptr noundef nonnull align 4 dereferenceable(16) %agg.tmp, ptr noundef nonnull align 4 dereferenceable(8) %ref.tmp, ptr noundef nonnull align 4 dereferenceable(8) %ref.tmp2) #3
  %7 = load ptr, ptr %outPtr.addr, align 8
  %call = call noundef i32 @_ZN7Imf_3_215Pxr24Compressor10uncompressEPKciN9Imath_3_23BoxINS3_4Vec2IiEEEERS2_(ptr noundef nonnull align 8 dereferenceable(60) %this1, ptr noundef %0, i32 noundef %1, ptr noundef %agg.tmp, ptr noundef nonnull align 8 dereferenceable(8) %7)
  ret i32 %call
}